target datalayout = "e-m:e-p270:32:32-p271:32:32-p272:64:64-i64:64-i128:128-f80:128-n8:16:32:64-S128"
target triple = "x86_64-pc-linux-gnu"

%"class.LightGBM::DatasetLoader" = type <{ ptr, %"class.LightGBM::Random", [4 x i8], %"class.std::function", i32, i32, i32, i32, %"class.std::unordered_set", %"class.std::vector", %"class.std::unordered_set", i8, [7 x i8] }>
%"class.LightGBM::Random" = type { i32 }
%"class.std::function" = type { %"class.std::_Function_base", ptr }
%"class.std::_Function_base" = type { %"union.std::_Any_data", ptr }
%"union.std::_Any_data" = type { %"union.std::_Nocopy_types" }
%"union.std::_Nocopy_types" = type { { i64, i64 } }
%"class.std::vector" = type { %"struct.std::_Vector_base" }
%"struct.std::_Vector_base" = type { %"struct.std::_Vector_base<std::__cxx11::basic_string<char>, std::allocator<std::__cxx11::basic_string<char>>>::_Vector_impl" }
%"struct.std::_Vector_base<std::__cxx11::basic_string<char>, std::allocator<std::__cxx11::basic_string<char>>>::_Vector_impl" = type { %"struct.std::_Vector_base<std::__cxx11::basic_string<char>, std::allocator<std::__cxx11::basic_string<char>>>::_Vector_impl_data" }
%"struct.std::_Vector_base<std::__cxx11::basic_string<char>, std::allocator<std::__cxx11::basic_string<char>>>::_Vector_impl_data" = type { ptr, ptr, ptr }
%"class.std::unordered_set" = type { %"class.std::_Hashtable" }
%"class.std::_Hashtable" = type { ptr, i64, %"struct.std::__detail::_Hash_node_base", i64, %"struct.std::__detail::_Prime_rehash_policy", ptr }
%"struct.std::__detail::_Hash_node_base" = type { ptr }
%"struct.std::__detail::_Prime_rehash_policy" = type { float, i64 }
%class.anon.248 = type <{ ptr, i32, i32, ptr, ptr, ptr, i32, [4 x i8] }>

@.str.57 = private unnamed_addr constant [91 x i8] c"Current query exceeds the range of the query file,\0Aplease ensure the query file is correct\00", align 1

; Function Attrs: inlinehint mustprogress nounwind uwtable
define linkonce_odr noundef i32 @_ZN8LightGBM6Random9RandInt16Ev(ptr noundef nonnull align 4 dereferenceable(4) %0) #6 comdat align 2 {
  %2 = alloca ptr, align 8
  store ptr %0, ptr %2, align 8, !tbaa !75
  %3 = load ptr, ptr %2, align 8
  %4 = getelementptr inbounds nuw %"class.LightGBM::Random", ptr %3, i32 0, i32 0
  %5 = load i32, ptr %4, align 4, !tbaa !77
  %6 = mul i32 214013, %5
  %7 = add i32 %6, 2531011
  %8 = getelementptr inbounds nuw %"class.LightGBM::Random", ptr %3, i32 0, i32 0
  store i32 %7, ptr %8, align 4, !tbaa !77
  %9 = getelementptr inbounds nuw %"class.LightGBM::Random", ptr %3, i32 0, i32 0
  %10 = load i32, ptr %9, align 4, !tbaa !77
  %11 = lshr i32 %10, 16
  %12 = and i32 %11, 32767
  ret i32 %12
}

; Function Attrs: inlinehint mustprogress uwtable
define linkonce_odr noundef i32 @_ZN8LightGBM6Random9NextShortEii(ptr noundef nonnull align 4 dereferenceable(4) %0, i32 noundef %1, i32 noundef %2) #12 comdat align 2 {
  %4 = alloca ptr, align 8
  %5 = alloca i32, align 4
  %6 = alloca i32, align 4
  store ptr %0, ptr %4, align 8, !tbaa !75
  store i32 %1, ptr %5, align 4, !tbaa !13
  store i32 %2, ptr %6, align 4, !tbaa !13
  %7 = load ptr, ptr %4, align 8
  %8 = call noundef i32 @_ZN8LightGBM6Random9RandInt16Ev(ptr noundef nonnull align 4 dereferenceable(4) %7)
  %9 = load i32, ptr %6, align 4, !tbaa !13
  %10 = load i32, ptr %5, align 4, !tbaa !13
  %11 = sub nsw i32 %9, %10
  %12 = srem i32 %8, %11
  %13 = load i32, ptr %5, align 4, !tbaa !13
  %14 = add nsw i32 %12, %13
  ret i32 %14
}

; Function Attrs: inlinehint mustprogress uwtable
define internal noundef zeroext i1 @"_ZZN8LightGBM13DatasetLoader20LoadTextDataToMemoryB5cxx11EPKcRKNS_8MetadataEiiPiPSt6vectorIiSaIiEEENK3$_1clEi"(ptr noundef nonnull align 8 dereferenceable(44) %0, i32 noundef %1) #12 align 2 {
  %3 = alloca ptr, align 8
  %4 = alloca i32, align 4
  store ptr %0, ptr %3, align 8, !tbaa !290
  store i32 %1, ptr %4, align 4, !tbaa !13
  %5 = load ptr, ptr %3, align 8
  %6 = getelementptr inbounds nuw %class.anon.248, ptr %5, i32 0, i32 0
  %7 = load ptr, ptr %6, align 8, !tbaa !554
  %8 = getelementptr inbounds nuw %class.anon.248, ptr %5, i32 0, i32 3
  %9 = load ptr, ptr %8, align 8, !tbaa !1132
  %10 = load i32, ptr %9, align 4, !tbaa !13
  %11 = getelementptr inbounds nuw %class.anon.248, ptr %5, i32 0, i32 6
  %12 = load i32, ptr %11, align 8, !tbaa !560
  %13 = icmp sge i32 %10, %12
  br i1 %13, label %14, label %15

14:                                               ; preds = %2
  call void (ptr, ...) @_ZN8LightGBM3Log5FatalEPKcz(ptr noundef @.str.57)
  br label %15

15:                                               ; preds = %14, %2
  %16 = load i32, ptr %4, align 4, !tbaa !13
  %17 = getelementptr inbounds nuw %class.anon.248, ptr %5, i32 0, i32 4
  %18 = load ptr, ptr %17, align 8, !tbaa !1133
  %19 = load ptr, ptr %18, align 8, !tbaa !133
  %20 = getelementptr inbounds nuw %class.anon.248, ptr %5, i32 0, i32 3
  %21 = load ptr, ptr %20, align 8, !tbaa !1132
  %22 = load i32, ptr %21, align 4, !tbaa !13
  %23 = add nsw i32 %22, 1
  %24 = sext i32 %23 to i64
  %25 = getelementptr inbounds i32, ptr %19, i64 %24
  %26 = load i32, ptr %25, align 4, !tbaa !13
  %27 = icmp sge i32 %16, %26
  br i1 %27, label %28, label %46

28:                                               ; preds = %15
  %29 = getelementptr inbounds nuw %class.anon.248, ptr %5, i32 0, i32 5
  %30 = load ptr, ptr %29, align 8, !tbaa !1134
  store i8 0, ptr %30, align 1, !tbaa !160
  %31 = getelementptr inbounds nuw %"class.LightGBM::DatasetLoader", ptr %7, i32 0, i32 1
  %32 = getelementptr inbounds nuw %class.anon.248, ptr %5, i32 0, i32 2
  %33 = load i32, ptr %32, align 4, !tbaa !558
  %34 = call noundef i32 @_ZN8LightGBM6Random9NextShortEii(ptr noundef nonnull align 4 dereferenceable(4) %31, i32 noundef 0, i32 noundef %33)
  %35 = getelementptr inbounds nuw %class.anon.248, ptr %5, i32 0, i32 1
  %36 = load i32, ptr %35, align 8, !tbaa !557
  %37 = icmp eq i32 %34, %36
  br i1 %37, label %38, label %41

38:                                               ; preds = %28
  %39 = getelementptr inbounds nuw %class.anon.248, ptr %5, i32 0, i32 5
  %40 = load ptr, ptr %39, align 8, !tbaa !1134
  store i8 1, ptr %40, align 1, !tbaa !160
  br label %41

41:                                               ; preds = %38, %28
  %42 = getelementptr inbounds nuw %class.anon.248, ptr %5, i32 0, i32 3
  %43 = load ptr, ptr %42, align 8, !tbaa !1132
  %44 = load i32, ptr %43, align 4, !tbaa !13
  %45 = add nsw i32 %44, 1
  store i32 %45, ptr %43, align 4, !tbaa !13
  br label %46

46:                                               ; preds = %41, %15
  %47 = getelementptr inbounds nuw %class.anon.248, ptr %5, i32 0, i32 5
  %48 = load ptr, ptr %47, align 8, !tbaa !1134
  %49 = load i8, ptr %48, align 1, !tbaa !160, !range !73, !noundef !74
  %50 = trunc i8 %49 to i1
  ret i1 %50
}

; Function Attrs: mustprogress nounwind uwtable
define linkonce_odr noundef ptr @_ZNKSt9_Any_data9_M_accessEv(ptr noundef nonnull align 8 dereferenceable(16) %0) #5 comdat align 2 {
  %2 = alloca ptr, align 8
  store ptr %0, ptr %2, align 8, !tbaa !373
  %3 = load ptr, ptr %2, align 8
  %4 = getelementptr inbounds [16 x i8], ptr %3, i64 0, i64 0
  ret ptr %4
}

; Function Attrs: mustprogress uwtable
define internal noundef zeroext i1 @"_ZSt13__invoke_implIbRZN8LightGBM13DatasetLoader20LoadTextDataToMemoryB5cxx11EPKcRKNS0_8MetadataEiiPiPSt6vectorIiSaIiEEE3$_1JiEET_St14__invoke_otherOT0_DpOT1_"(ptr noundef nonnull align 8 dereferenceable(44) %0, ptr noundef nonnull align 4 dereferenceable(4) %1) #4 {
  %3 = alloca ptr, align 8
  %4 = alloca ptr, align 8
  store ptr %0, ptr %3, align 8, !tbaa !290
  store ptr %1, ptr %4, align 8, !tbaa !133
  %5 = load ptr, ptr %3, align 8, !tbaa !290
  %6 = load ptr, ptr %4, align 8, !tbaa !133
  %7 = load i32, ptr %6, align 4, !tbaa !13
  %8 = call noundef zeroext i1 @"_ZZN8LightGBM13DatasetLoader20LoadTextDataToMemoryB5cxx11EPKcRKNS_8MetadataEiiPiPSt6vectorIiSaIiEEENK3$_1clEi"(ptr noundef nonnull align 8 dereferenceable(44) %5, i32 noundef %7)
  ret i1 %8
}

; Function Attrs: mustprogress nounwind uwtable
define internal noundef nonnull align 8 dereferenceable(8) ptr @"_ZNKSt9_Any_data9_M_accessIPZN8LightGBM13DatasetLoader20LoadTextDataToMemoryB5cxx11EPKcRKNS1_8MetadataEiiPiPSt6vectorIiSaIiEEE3$_1EERKT_v"(ptr noundef nonnull align 8 dereferenceable(16) %0) #5 align 2 {
  %2 = alloca ptr, align 8
  store ptr %0, ptr %2, align 8, !tbaa !373
  %3 = load ptr, ptr %2, align 8
  %4 = call noundef ptr @_ZNKSt9_Any_data9_M_accessEv(ptr noundef nonnull align 8 dereferenceable(16) %3) #3
  ret ptr %4
}

; Function Attrs: mustprogress uwtable
define internal noundef zeroext i1 @"_ZSt10__invoke_rIbRZN8LightGBM13DatasetLoader20LoadTextDataToMemoryB5cxx11EPKcRKNS0_8MetadataEiiPiPSt6vectorIiSaIiEEE3$_1JiEENSt9enable_ifIXsr6__and_ISt6__not_ISt7is_voidIT_EESt14is_convertibleINSt15__invoke_resultIT0_JDpT1_EE4typeESH_EEE5valueESH_E4typeEOSM_DpOSN_"(ptr noundef nonnull align 8 dereferenceable(44) %0, ptr noundef nonnull align 4 dereferenceable(4) %1) #4 {
  %3 = alloca ptr, align 8
  %4 = alloca ptr, align 8
  store ptr %0, ptr %3, align 8, !tbaa !290
  store ptr %1, ptr %4, align 8, !tbaa !133
  %5 = load ptr, ptr %3, align 8, !tbaa !290
  %6 = load ptr, ptr %4, align 8, !tbaa !133
  %7 = call noundef zeroext i1 @"_ZSt13__invoke_implIbRZN8LightGBM13DatasetLoader20LoadTextDataToMemoryB5cxx11EPKcRKNS0_8MetadataEiiPiPSt6vectorIiSaIiEEE3$_1JiEET_St14__invoke_otherOT0_DpOT1_"(ptr noundef nonnull align 8 dereferenceable(44) %5, ptr noundef nonnull align 4 dereferenceable(4) %6)
  ret i1 %7
}

; Function Attrs: mustprogress nounwind uwtable
define internal noundef ptr @"_ZNSt14_Function_base13_Base_managerIZN8LightGBM13DatasetLoader20LoadTextDataToMemoryB5cxx11EPKcRKNS1_8MetadataEiiPiPSt6vectorIiSaIiEEE3$_1E14_M_get_pointerERKSt9_Any_data"(ptr noundef nonnull align 8 dereferenceable(16) %0) #5 align 2 {
  %2 = alloca ptr, align 8
  store ptr %0, ptr %2, align 8, !tbaa !373
  %3 = load ptr, ptr %2, align 8, !tbaa !373
  %4 = call noundef nonnull align 8 dereferenceable(8) ptr @"_ZNKSt9_Any_data9_M_accessIPZN8LightGBM13DatasetLoader20LoadTextDataToMemoryB5cxx11EPKcRKNS1_8MetadataEiiPiPSt6vectorIiSaIiEEE3$_1EERKT_v"(ptr noundef nonnull align 8 dereferenceable(16) %3) #3
  %5 = load ptr, ptr %4, align 8, !tbaa !290
  ret ptr %5
}

; Function Attrs: mustprogress uwtable
define internal noundef zeroext i1 @"_ZNSt17_Function_handlerIFbiEZN8LightGBM13DatasetLoader20LoadTextDataToMemoryB5cxx11EPKcRKNS1_8MetadataEiiPiPSt6vectorIiSaIiEEE3$_1E9_M_invokeERKSt9_Any_dataOi"(ptr noundef nonnull align 8 dereferenceable(16) %0, ptr noundef nonnull align 4 dereferenceable(4) %1) #4 align 2 {
  %3 = alloca ptr, align 8
  %4 = alloca ptr, align 8
  store ptr %0, ptr %3, align 8, !tbaa !373
  store ptr %1, ptr %4, align 8, !tbaa !133
  %5 = load ptr, ptr %3, align 8, !tbaa !373
  %6 = call noundef ptr @"_ZNSt14_Function_base13_Base_managerIZN8LightGBM13DatasetLoader20LoadTextDataToMemoryB5cxx11EPKcRKNS1_8MetadataEiiPiPSt6vectorIiSaIiEEE3$_1E14_M_get_pointerERKSt9_Any_data"(ptr noundef nonnull align 8 dereferenceable(16) %5) #3
  %7 = load ptr, ptr %4, align 8, !tbaa !133
  %8 = call noundef zeroext i1 @"_ZSt10__invoke_rIbRZN8LightGBM13DatasetLoader20LoadTextDataToMemoryB5cxx11EPKcRKNS0_8MetadataEiiPiPSt6vectorIiSaIiEEE3$_1JiEENSt9enable_ifIXsr6__and_ISt6__not_ISt7is_voidIT_EESt14is_convertibleINSt15__invoke_resultIT0_JDpT1_EE4typeESH_EEE5valueESH_E4typeEOSM_DpOSN_"(ptr noundef nonnull align 8 dereferenceable(44) %6, ptr noundef nonnull align 4 dereferenceable(4) %7)
  ret i1 %8
}