; Function Attrs: mustprogress uwtable
define internal noundef zeroext i1 @"_ZNSt17_Function_handlerIFbiEZN8LightGBM13DatasetLoader20LoadTextDataToMemoryB5cxx11EPKcRKNS1_8MetadataEiiPiPSt6vectorIiSaIiEEE3$_1E9_M_invokeERKSt9_Any_dataOi"(ptr noundef nonnull readonly align 8 captures(none) dereferenceable(16) %0, ptr noundef nonnull readonly align 4 captures(none) dereferenceable(4) %1) #3 align 2 {
  %.val = load ptr, ptr %0, align 8, !tbaa !207
  %.val2 = load i32, ptr %1, align 4, !tbaa !111
  %3 = load ptr, ptr %.val, align 8, !tbaa !690
  %4 = getelementptr inbounds nuw i8, ptr %.val, i64 16
  %5 = load ptr, ptr %4, align 8, !tbaa !692
  %6 = load i32, ptr %5, align 4, !tbaa !111
  %7 = getelementptr inbounds nuw i8, ptr %.val, i64 40
  %8 = load i32, ptr %7, align 8, !tbaa !693
  %.not.i.i.i = icmp slt i32 %6, %8
  br i1 %.not.i.i.i, label %10, label %9

9:                                                ; preds = %2
  tail call void (ptr, ...) @_ZN8LightGBM3Log5FatalEPKcz(ptr noundef nonnull @.str.57)
  %.pre.i.i.i = load ptr, ptr %4, align 8, !tbaa !692
  %.pre2.i.i.i = load i32, ptr %.pre.i.i.i, align 4, !tbaa !111
  br label %10

10:                                               ; preds = %9, %2
  %11 = phi i32 [ %.pre2.i.i.i, %9 ], [ %6, %2 ]
  %12 = phi ptr [ %.pre.i.i.i, %9 ], [ %5, %2 ]
  %13 = getelementptr inbounds nuw i8, ptr %.val, i64 24
  %14 = load ptr, ptr %13, align 8, !tbaa !694
  %15 = load ptr, ptr %14, align 8, !tbaa !228
  %16 = sext i32 %11 to i64
  %17 = getelementptr i32, ptr %15, i64 %16
  %18 = getelementptr i8, ptr %17, i64 4
  %19 = load i32, ptr %18, align 4, !tbaa !111
  %.not1.i.i.i = icmp slt i32 %.val2, %19
  %.phi.trans.insert.i.i.i = getelementptr inbounds nuw i8, ptr %.val, i64 32
  %.pre3.i.i.i = load ptr, ptr %.phi.trans.insert.i.i.i, align 8, !tbaa !695
  br i1 %.not1.i.i.i, label %._crit_edge.i.i.i, label %20

._crit_edge.i.i.i:                                ; preds = %10
  %.pre4.i.i.i = load i8, ptr %.pre3.i.i.i, align 1, !tbaa !337, !range !71
  br label %"_ZSt10__invoke_rIbRZN8LightGBM13DatasetLoader20LoadTextDataToMemoryB5cxx11EPKcRKNS0_8MetadataEiiPiPSt6vectorIiSaIiEEE3$_1JiEENSt9enable_ifIXsr6__and_ISt6__not_ISt7is_voidIT_EESt14is_convertibleINSt15__invoke_resultIT0_JDpT1_EE4typeESH_EEE5valueESH_E4typeEOSM_DpOSN_.exit"

20:                                               ; preds = %10
  store i8 0, ptr %.pre3.i.i.i, align 1, !tbaa !337
  %21 = getelementptr inbounds nuw i8, ptr %3, i64 8
  %22 = getelementptr inbounds nuw i8, ptr %.val, i64 12
  %23 = load i32, ptr %22, align 4, !tbaa !696
  %24 = load i32, ptr %21, align 4, !tbaa !48
  %25 = mul i32 %24, 214013
  %26 = add i32 %25, 2531011
  store i32 %26, ptr %21, align 4, !tbaa !48
  %27 = lshr i32 %26, 16
  %28 = and i32 %27, 32767
  %29 = srem i32 %28, %23
  %30 = getelementptr inbounds nuw i8, ptr %.val, i64 8
  %31 = load i32, ptr %30, align 8, !tbaa !697
  %32 = icmp eq i32 %29, %31
  br i1 %32, label %33, label %34

33:                                               ; preds = %20
  store i8 1, ptr %.pre3.i.i.i, align 1, !tbaa !337
  br label %34

34:                                               ; preds = %33, %20
  %35 = phi i8 [ 1, %33 ], [ 0, %20 ]
  %36 = load i32, ptr %12, align 4, !tbaa !111
  %37 = add nsw i32 %36, 1
  store i32 %37, ptr %12, align 4, !tbaa !111
  br label %"_ZSt10__invoke_rIbRZN8LightGBM13DatasetLoader20LoadTextDataToMemoryB5cxx11EPKcRKNS0_8MetadataEiiPiPSt6vectorIiSaIiEEE3$_1JiEENSt9enable_ifIXsr6__and_ISt6__not_ISt7is_voidIT_EESt14is_convertibleINSt15__invoke_resultIT0_JDpT1_EE4typeESH_EEE5valueESH_E4typeEOSM_DpOSN_.exit"

"_ZSt10__invoke_rIbRZN8LightGBM13DatasetLoader20LoadTextDataToMemoryB5cxx11EPKcRKNS0_8MetadataEiiPiPSt6vectorIiSaIiEEE3$_1JiEENSt9enable_ifIXsr6__and_ISt6__not_ISt7is_voidIT_EESt14is_convertibleINSt15__invoke_resultIT0_JDpT1_EE4typeESH_EEE5valueESH_E4typeEOSM_DpOSN_.exit": ; preds = %._crit_edge.i.i.i, %34
  %38 = phi i8 [ %.pre4.i.i.i, %._crit_edge.i.i.i ], [ %35, %34 ]
  %39 = trunc nuw i8 %38 to i1
  ret i1 %39
}